target datalayout = "e-m:e-p270:32:32-p271:32:32-p272:64:64-i64:64-i128:128-f80:128-n8:16:32:64-S128"
target triple = "x86_64-pc-linux-gnu"

%struct.expert_field = type { i32, i32 }
%struct._packet_info = type { ptr, ptr, i32, i32, %struct.nstime_t, %struct.nstime_t, %struct.nstime_t, i8, ptr, ptr, ptr, ptr, %struct._address, %struct._address, %struct._address, %struct._address, %struct._address, %struct._address, i32, ptr, i8, [3 x i8], %struct.anon, i32, i32, i32, i32, ptr, i8, ptr, ptr, i16, i16, i32, i32, i16, i32, i32, ptr, ptr, ptr, i8, i8, i16, i16, i16, i32, i16, i16, ptr, ptr, ptr, ptr, ptr, i32, i32 }
%struct.nstime_t = type { i64, i32 }
%struct._address = type { i32, i32, ptr, ptr }
%struct.anon = type { i8, [3 x i8] }
%struct.mech_parameter_t = type { ptr, i32, ptr }

@hf_sip_sec_mechanism = internal global i32 0, align 4
@ei_sip_sipsec_malformed = internal global %struct.expert_field zeroinitializer, align 4

; Function Attrs: null_pointer_is_valid sspstrong uwtable
define internal void @dissect_sip_sec_mechanism(ptr noundef %0, ptr noundef %1, ptr noundef %2, i32 noundef %3, i32 noundef %4) #0 {
  %6 = alloca ptr, align 8
  %7 = alloca ptr, align 8
  %8 = alloca ptr, align 8
  %9 = alloca i32, align 4
  %10 = alloca i32, align 4
  %11 = alloca i32, align 4
  %12 = alloca i32, align 4
  %13 = alloca i32, align 4
  %14 = alloca i32, align 4
  %15 = alloca i32, align 4
  %16 = alloca i32, align 4
  %17 = alloca ptr, align 8
  %18 = alloca ptr, align 8
  %19 = alloca i8, align 1
  %20 = alloca i32, align 4
  store ptr %0, ptr %6, align 8
  store ptr %1, ptr %7, align 8
  store ptr %2, ptr %8, align 8
  store i32 %3, ptr %9, align 4
  store i32 %4, ptr %10, align 4
  call void @llvm.lifetime.start.p0(i64 4, ptr %11) #18
  call void @llvm.lifetime.start.p0(i64 4, ptr %12) #18
  call void @llvm.lifetime.start.p0(i64 4, ptr %13) #18
  call void @llvm.lifetime.start.p0(i64 4, ptr %14) #18
  call void @llvm.lifetime.start.p0(i64 4, ptr %15) #18
  %21 = load ptr, ptr %6, align 8
  %22 = load i32, ptr %9, align 4
  %23 = load i32, ptr %10, align 4
  %24 = load i32, ptr %9, align 4
  %25 = sub i32 %23, %24
  %26 = call i32 @tvb_skip_wsp(ptr noundef %21, i32 noundef %22, i32 noundef %25)
  store i32 %26, ptr %9, align 4
  %27 = load i32, ptr %9, align 4
  %28 = load i32, ptr %10, align 4
  %29 = icmp sge i32 %27, %28
  br i1 %29, label %30, label %31

30:                                               ; preds = %5
  store i32 1, ptr %16, align 4
  br label %206

31:                                               ; preds = %5
  %32 = load i32, ptr %9, align 4
  store i32 %32, ptr %11, align 4
  %33 = load ptr, ptr %6, align 8
  %34 = load i32, ptr %11, align 4
  %35 = load i32, ptr %10, align 4
  %36 = load i32, ptr %11, align 4
  %37 = sub i32 %35, %36
  %38 = call i32 @tvb_find_uint8(ptr noundef %33, i32 noundef %34, i32 noundef %37, i8 noundef zeroext 59)
  store i32 %38, ptr %12, align 4
  %39 = load i32, ptr %12, align 4
  %40 = icmp eq i32 %39, -1
  br i1 %40, label %41, label %43

41:                                               ; preds = %31
  %42 = load i32, ptr %10, align 4
  store i32 %42, ptr %12, align 4
  br label %43

43:                                               ; preds = %41, %31
  %44 = load i32, ptr %12, align 4
  %45 = load i32, ptr %11, align 4
  %46 = sub i32 %44, %45
  store i32 %46, ptr %13, align 4
  %47 = load ptr, ptr %8, align 8
  %48 = load i32, ptr @hf_sip_sec_mechanism, align 4
  %49 = load ptr, ptr %6, align 8
  %50 = load i32, ptr %9, align 4
  %51 = load i32, ptr %13, align 4
  %52 = call ptr @proto_tree_add_item(ptr noundef %47, i32 noundef %48, ptr noundef %49, i32 noundef %50, i32 noundef %51, i32 noundef 2)
  %53 = load i32, ptr %11, align 4
  %54 = load i32, ptr %13, align 4
  %55 = add i32 %53, %54
  %56 = add i32 %55, 1
  store i32 %56, ptr %11, align 4
  br label %57

57:                                               ; preds = %204, %43
  %58 = load i32, ptr %11, align 4
  %59 = load i32, ptr %10, align 4
  %60 = icmp slt i32 %58, %59
  br i1 %60, label %61, label %205

61:                                               ; preds = %57
  call void @llvm.lifetime.start.p0(i64 8, ptr %17) #18
  store ptr null, ptr %17, align 8
  call void @llvm.lifetime.start.p0(i64 8, ptr %18) #18
  store ptr null, ptr %18, align 8
  call void @llvm.lifetime.start.p0(i64 1, ptr %19) #18
  store i8 0, ptr %19, align 1
  %62 = load ptr, ptr %6, align 8
  %63 = load i32, ptr %11, align 4
  %64 = load i32, ptr %10, align 4
  %65 = load i32, ptr %11, align 4
  %66 = sub i32 %64, %65
  %67 = call i32 @tvb_skip_wsp(ptr noundef %62, i32 noundef %63, i32 noundef %66)
  store i32 %67, ptr %11, align 4
  %68 = load ptr, ptr %6, align 8
  %69 = load i32, ptr %11, align 4
  %70 = load i32, ptr %10, align 4
  %71 = load i32, ptr %11, align 4
  %72 = sub i32 %70, %71
  %73 = call i32 @tvb_find_uint8(ptr noundef %68, i32 noundef %69, i32 noundef %72, i8 noundef zeroext 59)
  store i32 %73, ptr %12, align 4
  %74 = load i32, ptr %12, align 4
  %75 = icmp eq i32 %74, -1
  br i1 %75, label %76, label %78

76:                                               ; preds = %61
  %77 = load i32, ptr %10, align 4
  store i32 %77, ptr %12, align 4
  br label %78

78:                                               ; preds = %76, %61
  %79 = load i32, ptr %12, align 4
  %80 = load i32, ptr %11, align 4
  %81 = sub i32 %79, %80
  store i32 %81, ptr %13, align 4
  %82 = load ptr, ptr %6, align 8
  %83 = load i32, ptr %11, align 4
  %84 = add i32 %83, 1
  %85 = load i32, ptr %13, align 4
  %86 = call i32 @tvb_find_uint8(ptr noundef %82, i32 noundef %84, i32 noundef %85, i8 noundef zeroext 61)
  store i32 %86, ptr %15, align 4
  %87 = load i32, ptr %15, align 4
  %88 = icmp ne i32 %87, -1
  br i1 %88, label %89, label %111

89:                                               ; preds = %78
  %90 = load i32, ptr %15, align 4
  store i32 %90, ptr %14, align 4
  %91 = load ptr, ptr %7, align 8
  %92 = getelementptr inbounds nuw %struct._packet_info, ptr %91, i32 0, i32 51
  %93 = load ptr, ptr %92, align 8
  %94 = load ptr, ptr %6, align 8
  %95 = load i32, ptr %11, align 4
  %96 = load i32, ptr %14, align 4
  %97 = load i32, ptr %11, align 4
  %98 = sub i32 %96, %97
  %99 = call ptr @tvb_get_string_enc(ptr noundef %93, ptr noundef %94, i32 noundef %95, i32 noundef %98, i32 noundef 2)
  store ptr %99, ptr %17, align 8
  %100 = load ptr, ptr %7, align 8
  %101 = getelementptr inbounds nuw %struct._packet_info, ptr %100, i32 0, i32 51
  %102 = load ptr, ptr %101, align 8
  %103 = load ptr, ptr %6, align 8
  %104 = load i32, ptr %15, align 4
  %105 = add i32 %104, 1
  %106 = load i32, ptr %12, align 4
  %107 = load i32, ptr %15, align 4
  %108 = sub i32 %106, %107
  %109 = add i32 %108, 1
  %110 = call ptr @tvb_get_string_enc(ptr noundef %102, ptr noundef %103, i32 noundef %105, i32 noundef %109, i32 noundef 2)
  store ptr %110, ptr %18, align 8
  br label %112

111:                                              ; preds = %78
  store i32 1, ptr %16, align 4
  br label %202

112:                                              ; preds = %89
  br label %113

113:                                              ; preds = %183, %112
  %114 = load i8, ptr %19, align 1
  %115 = zext i8 %114 to i64
  %116 = getelementptr [10 x %struct.mech_parameter_t], ptr @sec_mechanism_parameters_hf_array, i64 0, i64 %115
  %117 = getelementptr inbounds nuw %struct.mech_parameter_t, ptr %116, i32 0, i32 0
  %118 = load ptr, ptr %117, align 8
  %119 = icmp ne ptr %118, null
  br i1 %119, label %120, label %186

120:                                              ; preds = %113
  %121 = load ptr, ptr %17, align 8
  %122 = load i8, ptr %19, align 1
  %123 = zext i8 %122 to i64
  %124 = getelementptr [10 x %struct.mech_parameter_t], ptr @sec_mechanism_parameters_hf_array, i64 0, i64 %123
  %125 = getelementptr inbounds nuw %struct.mech_parameter_t, ptr %124, i32 0, i32 0
  %126 = load ptr, ptr %125, align 8
  %127 = call i32 @g_ascii_strcasecmp(ptr noundef %121, ptr noundef %126)
  %128 = icmp eq i32 %127, 0
  br i1 %128, label %129, label %183

129:                                              ; preds = %120
  %130 = load i8, ptr %19, align 1
  %131 = zext i8 %130 to i64
  %132 = getelementptr [10 x %struct.mech_parameter_t], ptr @sec_mechanism_parameters_hf_array, i64 0, i64 %131
  %133 = getelementptr inbounds nuw %struct.mech_parameter_t, ptr %132, i32 0, i32 1
  %134 = load i32, ptr %133, align 8
  switch i32 %134, label %181 [
    i32 0, label %135
    i32 1, label %151
  ]

135:                                              ; preds = %129
  %136 = load ptr, ptr %8, align 8
  %137 = load i8, ptr %19, align 1
  %138 = zext i8 %137 to i64
  %139 = getelementptr [10 x %struct.mech_parameter_t], ptr @sec_mechanism_parameters_hf_array, i64 0, i64 %138
  %140 = getelementptr inbounds nuw %struct.mech_parameter_t, ptr %139, i32 0, i32 2
  %141 = load ptr, ptr %140, align 8
  %142 = load i32, ptr %141, align 4
  %143 = load ptr, ptr %6, align 8
  %144 = load i32, ptr %15, align 4
  %145 = add i32 %144, 1
  %146 = load i32, ptr %12, align 4
  %147 = load i32, ptr %15, align 4
  %148 = sub i32 %146, %147
  %149 = sub i32 %148, 1
  %150 = call ptr @proto_tree_add_item(ptr noundef %136, i32 noundef %142, ptr noundef %143, i32 noundef %145, i32 noundef %149, i32 noundef 2)
  br label %182

151:                                              ; preds = %129
  %152 = load ptr, ptr %18, align 8
  %153 = icmp ne ptr %152, null
  br i1 %153, label %160, label %154

154:                                              ; preds = %151
  %155 = load ptr, ptr %8, align 8
  %156 = load ptr, ptr %7, align 8
  %157 = load ptr, ptr %6, align 8
  %158 = load i32, ptr %11, align 4
  %159 = call ptr @proto_tree_add_expert(ptr noundef %155, ptr noundef %156, ptr noundef @ei_sip_sipsec_malformed, ptr noundef %157, i32 noundef %158, i32 noundef -1)
  br label %180

160:                                              ; preds = %151
  call void @llvm.lifetime.start.p0(i64 4, ptr %20) #18
  %161 = load ptr, ptr %18, align 8
  %162 = call i64 @strtoul(ptr noundef %161, ptr noundef null, i32 noundef 10) #18
  %163 = trunc i64 %162 to i32
  store i32 %163, ptr %20, align 4
  %164 = load ptr, ptr %8, align 8
  %165 = load i8, ptr %19, align 1
  %166 = zext i8 %165 to i64
  %167 = getelementptr [10 x %struct.mech_parameter_t], ptr @sec_mechanism_parameters_hf_array, i64 0, i64 %166
  %168 = getelementptr inbounds nuw %struct.mech_parameter_t, ptr %167, i32 0, i32 2
  %169 = load ptr, ptr %168, align 8
  %170 = load i32, ptr %169, align 4
  %171 = load ptr, ptr %6, align 8
  %172 = load i32, ptr %15, align 4
  %173 = add i32 %172, 1
  %174 = load i32, ptr %12, align 4
  %175 = load i32, ptr %15, align 4
  %176 = sub i32 %174, %175
  %177 = sub i32 %176, 1
  %178 = load i32, ptr %20, align 4
  %179 = call ptr @proto_tree_add_uint(ptr noundef %164, i32 noundef %170, ptr noundef %171, i32 noundef %173, i32 noundef %177, i32 noundef %178)
  call void @llvm.lifetime.end.p0(i64 4, ptr %20) #18
  br label %180

180:                                              ; preds = %160, %154
  br label %182

181:                                              ; preds = %129
  br label %182

182:                                              ; preds = %181, %180, %135
  br label %186

183:                                              ; preds = %120
  %184 = load i8, ptr %19, align 1
  %185 = add i8 %184, 1
  store i8 %185, ptr %19, align 1
  br label %113, !llvm.loop !59

186:                                              ; preds = %182, %113
  %187 = load i8, ptr %19, align 1
  %188 = zext i8 %187 to i64
  %189 = getelementptr [10 x %struct.mech_parameter_t], ptr @sec_mechanism_parameters_hf_array, i64 0, i64 %188
  %190 = getelementptr inbounds nuw %struct.mech_parameter_t, ptr %189, i32 0, i32 0
  %191 = load ptr, ptr %190, align 8
  %192 = icmp ne ptr %191, null
  br i1 %192, label %199, label %193

193:                                              ; preds = %186
  %194 = load ptr, ptr %8, align 8
  %195 = load ptr, ptr %6, align 8
  %196 = load i32, ptr %11, align 4
  %197 = load i32, ptr %13, align 4
  %198 = call ptr @proto_tree_add_format_text(ptr noundef %194, ptr noundef %195, i32 noundef %196, i32 noundef %197)
  br label %199

199:                                              ; preds = %193, %186
  %200 = load i32, ptr %12, align 4
  %201 = add i32 %200, 1
  store i32 %201, ptr %11, align 4
  store i32 0, ptr %16, align 4
  br label %202

202:                                              ; preds = %199, %111
  call void @llvm.lifetime.end.p0(i64 1, ptr %19) #18
  call void @llvm.lifetime.end.p0(i64 8, ptr %18) #18
  call void @llvm.lifetime.end.p0(i64 8, ptr %17) #18
  %203 = load i32, ptr %16, align 4
  switch i32 %203, label %206 [
    i32 0, label %204
  ]

204:                                              ; preds = %202
  br label %57, !llvm.loop !60

205:                                              ; preds = %57
  store i32 0, ptr %16, align 4
  br label %206

206:                                              ; preds = %205, %202, %30
  call void @llvm.lifetime.end.p0(i64 4, ptr %15) #18
  call void @llvm.lifetime.end.p0(i64 4, ptr %14) #18
  call void @llvm.lifetime.end.p0(i64 4, ptr %13) #18
  call void @llvm.lifetime.end.p0(i64 4, ptr %12) #18
  call void @llvm.lifetime.end.p0(i64 4, ptr %11) #18
  %207 = load i32, ptr %16, align 4
  switch i32 %207, label %209 [
    i32 0, label %208
    i32 1, label %208
  ]

208:                                              ; preds = %206, %206
  ret void

209:                                              ; preds = %206
  unreachable
}