; Function Attrs: null_pointer_is_valid sspstrong uwtable
define internal fastcc void @dissect_sip_sec_mechanism(ptr noundef %0, ptr noundef %1, ptr noundef %2, i32 noundef %3, i32 noundef %4) unnamed_addr #0 {
  %6 = sub i32 %4, %3
  %7 = tail call i32 @tvb_skip_wsp(ptr noundef %0, i32 noundef %3, i32 noundef %6)
  %.not = icmp slt i32 %7, %4
  br i1 %.not, label %8, label %.thread96

8:                                                ; preds = %5
  %9 = sub i32 %4, %7
  %10 = tail call i32 @tvb_find_uint8(ptr noundef %0, i32 noundef %7, i32 noundef %9, i8 noundef zeroext 59)
  %11 = icmp eq i32 %10, -1
  %spec.select = select i1 %11, i32 %4, i32 %10
  %12 = sub i32 %spec.select, %7
  %13 = load i32, ptr @hf_sip_sec_mechanism, align 4
  %14 = tail call ptr @proto_tree_add_item(ptr noundef %2, i32 noundef %13, ptr noundef %0, i32 noundef %7, i32 noundef %12, i32 noundef 2)
  %.081100 = add i32 %spec.select, 1
  %15 = icmp slt i32 %.081100, %4
  br i1 %15, label %.lr.ph, label %.thread96

.lr.ph:                                           ; preds = %8
  %16 = getelementptr inbounds nuw i8, ptr %1, i64 408
  br label %17

17:                                               ; preds = %.lr.ph, %.thread
  %.081101 = phi i32 [ %.081100, %.lr.ph ], [ %.081, %.thread ]
  %18 = sub i32 %4, %.081101
  %19 = tail call i32 @tvb_skip_wsp(ptr noundef %0, i32 noundef %.081101, i32 noundef %18)
  %20 = sub i32 %4, %19
  %21 = tail call i32 @tvb_find_uint8(ptr noundef %0, i32 noundef %19, i32 noundef %20, i8 noundef zeroext 59)
  %22 = icmp eq i32 %21, -1
  %spec.select95 = select i1 %22, i32 %4, i32 %21
  %23 = sub i32 %spec.select95, %19
  %24 = add i32 %19, 1
  %25 = tail call i32 @tvb_find_uint8(ptr noundef %0, i32 noundef %24, i32 noundef %23, i8 noundef zeroext 61)
  %.not91.not = icmp eq i32 %25, -1
  br i1 %.not91.not, label %.thread96, label %26

26:                                               ; preds = %17
  %27 = load ptr, ptr %16, align 8
  %28 = sub i32 %25, %19
  %29 = tail call ptr @tvb_get_string_enc(ptr noundef %27, ptr noundef %0, i32 noundef %19, i32 noundef %28, i32 noundef 2)
  %30 = load ptr, ptr %16, align 8
  %31 = add nuw i32 %25, 1
  %32 = sub i32 %spec.select95, %25
  %33 = add i32 %32, 1
  %34 = tail call ptr @tvb_get_string_enc(ptr noundef %30, ptr noundef %0, i32 noundef %31, i32 noundef %33, i32 noundef 2)
  %35 = tail call i32 @g_ascii_strcasecmp(ptr noundef %29, ptr noundef nonnull @.str.789)
  %36 = icmp eq i32 %35, 0
  br i1 %36, label %._crit_edge, label %.lr.ph108

.lr.ph108:                                        ; preds = %26, %37
  %indvars.iv107 = phi i64 [ %indvars.iv.next, %37 ], [ 0, %26 ]
  %indvars.iv.next = add nuw nsw i64 %indvars.iv107, 1
  %exitcond = icmp eq i64 %indvars.iv.next, 9
  br i1 %exitcond, label %61, label %37, !llvm.loop !58

37:                                               ; preds = %.lr.ph108
  %38 = getelementptr [10 x %struct.mech_parameter_t], ptr @sec_mechanism_parameters_hf_array, i64 0, i64 %indvars.iv.next
  %39 = load ptr, ptr %38, align 8
  %40 = tail call i32 @g_ascii_strcasecmp(ptr noundef %29, ptr noundef nonnull %39)
  %41 = icmp eq i32 %40, 0
  br i1 %41, label %._crit_edge, label %.lr.ph108, !llvm.loop !58

._crit_edge:                                      ; preds = %37, %26
  %.lcssa = phi ptr [ @sec_mechanism_parameters_hf_array, %26 ], [ %38, %37 ]
  %42 = getelementptr inbounds nuw i8, ptr %.lcssa, i64 8
  %43 = load i32, ptr %42, align 8
  switch i32 %43, label %.thread [
    i32 0, label %44
    i32 1, label %50
  ]

44:                                               ; preds = %._crit_edge
  %45 = getelementptr inbounds nuw i8, ptr %.lcssa, i64 16
  %46 = load ptr, ptr %45, align 8
  %47 = load i32, ptr %46, align 4
  %48 = add i32 %32, -1
  %49 = tail call ptr @proto_tree_add_item(ptr noundef %2, i32 noundef %47, ptr noundef %0, i32 noundef %31, i32 noundef %48, i32 noundef 2)
  br label %.thread

50:                                               ; preds = %._crit_edge
  %.not93 = icmp eq ptr %34, null
  br i1 %.not93, label %51, label %53

51:                                               ; preds = %50
  %52 = tail call ptr @proto_tree_add_expert(ptr noundef %2, ptr noundef %1, ptr noundef nonnull @ei_sip_sipsec_malformed, ptr noundef %0, i32 noundef %19, i32 noundef -1)
  br label %.thread

53:                                               ; preds = %50
  %54 = tail call i64 @strtoul(ptr noundef nonnull captures(none) %34, ptr noundef null, i32 noundef 10) #18
  %55 = trunc i64 %54 to i32
  %56 = getelementptr inbounds nuw i8, ptr %.lcssa, i64 16
  %57 = load ptr, ptr %56, align 8
  %58 = load i32, ptr %57, align 4
  %59 = add i32 %32, -1
  %60 = tail call ptr @proto_tree_add_uint(ptr noundef %2, i32 noundef %58, ptr noundef %0, i32 noundef %31, i32 noundef %59, i32 noundef %55)
  br label %.thread

61:                                               ; preds = %.lr.ph108
  %62 = tail call ptr @proto_tree_add_format_text(ptr noundef %2, ptr noundef %0, i32 noundef %19, i32 noundef %23)
  br label %.thread

.thread:                                          ; preds = %._crit_edge, %51, %53, %44, %61
  %.081 = add i32 %spec.select95, 1
  %63 = icmp slt i32 %.081, %4
  br i1 %63, label %17, label %.thread96, !llvm.loop !59

.thread96:                                        ; preds = %.thread, %17, %8, %5
  ret void
}